Certificate:
    Data:
        Version: 3 (0x2)
        Serial Number: 4097 (0x1001)
        Signature Algorithm: sha256WithRSAEncryption
        Issuer: C=AT, ST=LowerAustria, L=Hollabrunn, O=Suljevic.test.htl-hl.at, OU=Test, CN=Test Suljevc
        Validity
            Not Before: Nov 13 08:05:59 2024 GMT
            Not After : Jan 30 08:05:59 2033 GMT
        Subject: C=AU, ST=LowerAustria, L=Hollabrunn, O=Suljevic, OU=IT, CN=172.17.128.1
        Subject Public Key Info:
            Public Key Algorithm: rsaEncryption
                Public-Key: (4096 bit)
                Modulus:
                    00:8f:e8:d4:08:10:d8:a1:75:b3:57:33:9f:06:c7:
                    98:cd:35:f6:21:46:33:f6:11:87:46:cb:c7:bb:90:
                    85:5f:0a:15:c4:2d:85:bb:88:80:b1:0a:c0:ba:75:
                    dc:08:70:70:90:ab:43:13:14:b9:00:8e:14:84:9b:
                    80:9d:76:4f:3d:05:36:76:f1:d4:e5:1d:27:d4:3a:
                    96:1f:7f:c9:3e:f3:c5:b4:db:64:50:2b:fc:94:6c:
                    3f:f9:e5:63:27:c9:3c:7a:f8:4a:e3:a6:9e:f8:68:
                    bb:b0:ec:f1:d5:1e:d6:f2:7a:76:21:dd:df:14:c6:
                    57:a9:7b:4a:82:d0:dd:ea:5f:1f:71:9f:03:69:14:
                    4d:98:fd:aa:84:01:f1:5f:4b:fc:81:a0:00:d8:c4:
                    c1:b2:99:9b:86:94:1f:17:6e:c5:66:24:db:e4:85:
                    2f:2b:6b:c0:01:d5:24:9b:46:09:5a:f4:2d:77:ae:
                    b9:48:63:e5:55:6a:e8:ad:60:7d:79:1d:9c:01:41:
                    af:e9:95:50:c9:7a:4f:87:78:02:15:f2:3a:d2:f6:
                    41:61:f4:fe:6e:d0:fb:a8:19:e1:fa:23:ec:ae:f3:
                    79:2d:6e:78:55:c6:5b:a6:c5:33:f9:d7:c0:2b:ee:
                    0d:da:b9:67:37:7f:7f:27:78:2a:e4:3c:70:a2:fd:
                    06:1c:35:d3:52:2b:12:b9:46:5a:2b:4c:3b:3e:e5:
                    85:c7:57:6d:3d:ba:b1:f3:4d:14:de:40:43:ca:d8:
                    d6:4c:48:d6:50:bc:40:ee:7e:e0:44:78:ae:44:b0:
                    fe:01:f4:4c:36:ea:83:9d:88:83:76:03:d9:2e:5f:
                    f2:56:90:5d:95:87:66:05:bf:73:01:12:25:7c:79:
                    3f:01:b1:12:07:89:fa:1a:c9:1f:31:f5:04:8d:69:
                    8c:82:27:45:cc:63:4b:11:87:7f:09:b4:5c:b2:62:
                    71:25:65:a9:68:f6:1d:23:cc:1f:8e:6d:44:91:65:
                    a9:ff:99:3b:5e:97:54:42:ec:f2:40:50:20:be:c8:
                    df:a4:85:b1:b3:bd:68:f9:0e:ce:e0:72:4e:cc:8f:
                    a5:64:8e:ce:e3:da:9d:13:b6:a4:d3:e7:d0:d0:b4:
                    59:34:30:5a:f8:2a:55:a6:19:0c:fa:53:54:66:38:
                    94:4f:d0:2d:e2:6f:78:49:9f:99:79:87:53:8f:f4:
                    19:d7:d1:45:8f:71:d6:ca:79:21:96:b9:3d:d3:d6:
                    24:e6:d7:dd:19:2e:a7:2d:2c:1c:33:d8:84:37:67:
                    14:dd:78:ae:c7:3d:05:c6:b6:5f:15:35:b3:ae:cf:
                    52:21:c7:77:84:d3:cf:0b:4c:31:05:df:61:ab:c3:
                    a5:da:91
                Exponent: 65537 (0x10001)
        X509v3 extensions:
            X509v3 Basic Constraints: critical
                CA:TRUE
            X509v3 Subject Key Identifier: 
                E8:C4:BC:2B:DE:6B:2D:05:28:66:60:82:D5:7A:36:FB:92:EE:01:C8
            X509v3 Authority Key Identifier: 
                keyid:92:C6:88:3D:DF:3F:EA:14:B1:44:6A:16:44:50:FB:85:91:9A:50:29
                DirName:/C=AT/ST=LowerAustria/L=Hollabrunn/O=Suljevic.htl-hl.ac.at/OU=IT/CN=Benjamin Suljevic/emailAddress=no
                serial:10:00
            X509v3 Key Usage: critical
                Digital Signature, Certificate Sign, CRL Sign
    Signature Algorithm: sha256WithRSAEncryption
    Signature Value:
        84:54:0b:2c:57:ea:46:14:bf:7c:ce:4b:76:0e:3c:95:e4:c7:
        91:d1:bd:16:91:16:be:0f:a5:c4:6c:7a:40:3a:4c:66:46:1d:
        94:25:2d:d2:ef:64:63:89:19:9f:aa:9b:9d:5c:4e:0b:d4:2a:
        12:fa:2e:93:ae:5f:13:f1:91:a5:29:82:04:e7:88:30:c1:0c:
        4c:ec:30:6d:19:88:0a:e2:93:0f:0f:21:dc:f7:df:b0:35:d0:
        0b:9f:25:c5:96:cf:8f:09:89:0f:05:91:02:80:c9:a6:49:3b:
        6a:fa:e8:68:03:61:34:bf:12:a3:14:fe:47:89:f0:ba:3f:5d:
        e7:40:fe:e8:cb:d2:e5:c9:40:8e:35:c9:a0:c6:c5:0e:0b:9b:
        69:b2:dd:0f:33:8d:74:91:01:57:e6:5f:4e:72:20:70:42:0b:
        8f:d2:e5:b8:59:32:5f:03:1a:61:3e:57:c1:b4:06:b9:2f:27:
        e7:11:93:be:b7:92:7c:36:44:b9:d7:09:33:05:7e:60:70:8f:
        16:ae:e8:da:f0:44:0e:b1:22:94:67:05:97:fa:5d:2b:10:4b:
        17:f8:e7:dc:51:cd:93:57:f3:42:78:81:c0:59:8c:91:e2:e9:
        93:e4:43:eb:78:23:f9:7f:e0:6e:46:2f:85:92:ab:df:1b:7b:
        04:50:c9:a0:1e:ad:09:4c:9a:b3:ba:1f:ab:6e:93:d9:10:3b:
        3e:fa:b7:ef:ba:3e:87:32:e9:f0:0e:1c:c3:87:3f:42:15:f6:
        0c:aa:e8:46:d7:35:2c:67:96:a9:d4:db:79:66:95:04:6a:1a:
        93:d0:18:bf:13:b7:17:9d:01:4e:5a:b4:11:92:c8:7e:6a:47:
        22:24:c4:81:93:91:76:5b:a9:9e:15:c2:fe:4f:71:31:6b:7e:
        d7:22:3b:e9:a8:23:7a:0c:a3:f0:bf:0f:da:3a:11:0b:13:c6:
        a0:0f:5d:99:56:23:bb:fd:c3:4c:d6:e5:27:71:c8:fd:7f:e8:
        f9:d0:11:41:1b:cd:fe:66:93:0e:11:4e:a1:28:91:dc:53:9b:
        ff:f8:46:c9:dd:9b:5a:66:1b:2d:e9:ea:db:8f:48:d6:58:0d:
        8c:ce:d8:20:c8:58:02:4f:c1:de:95:80:d1:b3:9e:fa:d7:cb:
        59:25:58:e0:23:0e:55:31:a2:ce:c5:46:df:0d:42:0e:ea:e0:
        46:ff:98:25:e7:b8:82:0f:6c:f3:4e:11:a5:f3:79:8f:c1:7d:
        10:35:e7:71:14:8c:47:b3:5c:e0:09:20:c7:6a:66:72:d6:1e:
        14:d1:3e:43:e0:36:6c:d9:fb:59:4b:5c:12:b6:e1:f3:46:10:
        7a:3c:54:fc:84:84:79:33
-----BEGIN CERTIFICATE-----
MIIGejCCBGKgAwIBAgICEAEwDQYJKoZIhvcNAQELBQAwgYExCzAJBgNVBAYTAkFU
MRUwEwYDVQQIDAxMb3dlckF1c3RyaWExEzARBgNVBAcMCkhvbGxhYnJ1bm4xIDAe
BgNVBAoMF1N1bGpldmljLnRlc3QuaHRsLWhsLmF0MQ0wCwYDVQQLDARUZXN0MRUw
EwYDVQQDDAxUZXN0IFN1bGpldmMwHhcNMjQxMTEzMDgwNTU5WhcNMzMwMTMwMDgw
NTU5WjBwMQswCQYDVQQGEwJBVTEVMBMGA1UECAwMTG93ZXJBdXN0cmlhMRMwEQYD
VQQHDApIb2xsYWJydW5uMREwDwYDVQQKDAhTdWxqZXZpYzELMAkGA1UECwwCSVQx
FTATBgNVBAMMDDE3Mi4xNy4xMjguMTCCAiIwDQYJKoZIhvcNAQEBBQADggIPADCC
AgoCggIBAI/o1AgQ2KF1s1cznwbHmM019iFGM/YRh0bLx7uQhV8KFcQthbuIgLEK
wLp13AhwcJCrQxMUuQCOFISbgJ12Tz0FNnbx1OUdJ9Q6lh9/yT7zxbTbZFAr/JRs
P/nlYyfJPHr4SuOmnvhou7Ds8dUe1vJ6diHd3xTGV6l7SoLQ3epfH3GfA2kUTZj9
qoQB8V9L/IGgANjEwbKZm4aUHxduxWYk2+SFLytrwAHVJJtGCVr0LXeuuUhj5VVq
6K1gfXkdnAFBr+mVUMl6T4d4AhXyOtL2QWH0/m7Q+6gZ4foj7K7zeS1ueFXGW6bF
M/nXwCvuDdq5Zzd/fyd4KuQ8cKL9Bhw101IrErlGWitMOz7lhcdXbT26sfNNFN5A
Q8rY1kxI1lC8QO5+4ER4rkSw/gH0TDbqg52Ig3YD2S5f8laQXZWHZgW/cwESJXx5
PwGxEgeJ+hrJHzH1BI1pjIInRcxjSxGHfwm0XLJicSVlqWj2HSPMH45tRJFlqf+Z
O16XVELs8kBQIL7I36SFsbO9aPkOzuByTsyPpWSOzuPanRO2pNPn0NC0WTQwWvgq
VaYZDPpTVGY4lE/QLeJveEmfmXmHU4/0GdfRRY9x1sp5IZa5PdPWJObX3Rkupy0s
HDPYhDdnFN14rsc9Bca2XxU1s67PUiHHd4TTzwtMMQXfYavDpdqRAgMBAAGjggEK
MIIBBjAPBgNVHRMBAf8EBTADAQH/MB0GA1UdDgQWBBToxLwr3mstBShmYILVejb7
ku4ByDCBwwYDVR0jBIG7MIG4gBSSxog93z/qFLFEahZEUPuFkZpQKaGBm6SBmDCB
lTELMAkGA1UEBhMCQVQxFTATBgNVBAgMDExvd2VyQXVzdHJpYTETMBEGA1UEBwwK
SG9sbGFicnVubjEeMBwGA1UECgwVU3VsamV2aWMuaHRsLWhsLmFjLmF0MQswCQYD
VQQLDAJJVDEaMBgGA1UEAwwRQmVuamFtaW4gU3VsamV2aWMxETAPBgkqhkiG9w0B
CQEWAm5vggIQADAOBgNVHQ8BAf8EBAMCAYYwDQYJKoZIhvcNAQELBQADggIBAIRU
CyxX6kYUv3zOS3YOPJXkx5HRvRaRFr4PpcRsekA6TGZGHZQlLdLvZGOJGZ+qm51c
TgvUKhL6LpOuXxPxkaUpggTniDDBDEzsMG0ZiArikw8PIdz337A10AufJcWWz48J
iQ8FkQKAyaZJO2r66GgDYTS/EqMU/keJ8Lo/XedA/ujL0uXJQI41yaDGxQ4Lm2my
3Q8zjXSRAVfmX05yIHBCC4/S5bhZMl8DGmE+V8G0BrkvJ+cRk763knw2RLnXCTMF
fmBwjxau6NrwRA6xIpRnBZf6XSsQSxf459xRzZNX80J4gcBZjJHi6ZPkQ+t4I/l/
4G5GL4WSq98bewRQyaAerQlMmrO6H6tuk9kQOz76t++6Pocy6fAOHMOHP0IV9gyq
6EbXNSxnlqnU23lmlQRqGpPQGL8TtxedAU5atBGSyH5qRyIkxIGTkXZbqZ4Vwv5P
cTFrftciO+moI3oMo/C/D9o6EQsTxqAPXZlWI7v9w0zW5SdxyP1/6PnQEUEbzf5m
kw4RTqEokdxTm//4Rsndm1pmGy3p6tuPSNZYDYzO2CDIWAJPwd6VgNGznvrXy1kl
WOAjDlUxos7FRt8NQg7q4Eb/mCXnuIIPbPNOEaXzeY/BfRA153EUjEezXOAJIMdq
ZnLWHhTRPkPgNmzZ+1lLXBK24fNGEHo8VPyEhHkz
-----END CERTIFICATE-----
