Certificate:
    Data:
        Version: 3 (0x2)
        Serial Number: 4098 (0x1002)
        Signature Algorithm: sha256WithRSAEncryption
        Issuer: C=AT, ST=LowerAustria, L=Hollabrunn, O=Suljevic.test.htl-hl.at, OU=Test, CN=Test Suljevc
        Validity
            Not Before: Nov 13 08:12:15 2024 GMT
            Not After : Jan 30 08:12:15 2033 GMT
        Subject: C=AU, ST=LowerAustria, L=Hollabrunn, O=Suljevic, OU=IT, CN=172.17.128.1
        Subject Public Key Info:
            Public Key Algorithm: rsaEncryption
                Public-Key: (4096 bit)
                Modulus:
                    00:8f:e8:d4:08:10:d8:a1:75:b3:57:33:9f:06:c7:
                    98:cd:35:f6:21:46:33:f6:11:87:46:cb:c7:bb:90:
                    85:5f:0a:15:c4:2d:85:bb:88:80:b1:0a:c0:ba:75:
                    dc:08:70:70:90:ab:43:13:14:b9:00:8e:14:84:9b:
                    80:9d:76:4f:3d:05:36:76:f1:d4:e5:1d:27:d4:3a:
                    96:1f:7f:c9:3e:f3:c5:b4:db:64:50:2b:fc:94:6c:
                    3f:f9:e5:63:27:c9:3c:7a:f8:4a:e3:a6:9e:f8:68:
                    bb:b0:ec:f1:d5:1e:d6:f2:7a:76:21:dd:df:14:c6:
                    57:a9:7b:4a:82:d0:dd:ea:5f:1f:71:9f:03:69:14:
                    4d:98:fd:aa:84:01:f1:5f:4b:fc:81:a0:00:d8:c4:
                    c1:b2:99:9b:86:94:1f:17:6e:c5:66:24:db:e4:85:
                    2f:2b:6b:c0:01:d5:24:9b:46:09:5a:f4:2d:77:ae:
                    b9:48:63:e5:55:6a:e8:ad:60:7d:79:1d:9c:01:41:
                    af:e9:95:50:c9:7a:4f:87:78:02:15:f2:3a:d2:f6:
                    41:61:f4:fe:6e:d0:fb:a8:19:e1:fa:23:ec:ae:f3:
                    79:2d:6e:78:55:c6:5b:a6:c5:33:f9:d7:c0:2b:ee:
                    0d:da:b9:67:37:7f:7f:27:78:2a:e4:3c:70:a2:fd:
                    06:1c:35:d3:52:2b:12:b9:46:5a:2b:4c:3b:3e:e5:
                    85:c7:57:6d:3d:ba:b1:f3:4d:14:de:40:43:ca:d8:
                    d6:4c:48:d6:50:bc:40:ee:7e:e0:44:78:ae:44:b0:
                    fe:01:f4:4c:36:ea:83:9d:88:83:76:03:d9:2e:5f:
                    f2:56:90:5d:95:87:66:05:bf:73:01:12:25:7c:79:
                    3f:01:b1:12:07:89:fa:1a:c9:1f:31:f5:04:8d:69:
                    8c:82:27:45:cc:63:4b:11:87:7f:09:b4:5c:b2:62:
                    71:25:65:a9:68:f6:1d:23:cc:1f:8e:6d:44:91:65:
                    a9:ff:99:3b:5e:97:54:42:ec:f2:40:50:20:be:c8:
                    df:a4:85:b1:b3:bd:68:f9:0e:ce:e0:72:4e:cc:8f:
                    a5:64:8e:ce:e3:da:9d:13:b6:a4:d3:e7:d0:d0:b4:
                    59:34:30:5a:f8:2a:55:a6:19:0c:fa:53:54:66:38:
                    94:4f:d0:2d:e2:6f:78:49:9f:99:79:87:53:8f:f4:
                    19:d7:d1:45:8f:71:d6:ca:79:21:96:b9:3d:d3:d6:
                    24:e6:d7:dd:19:2e:a7:2d:2c:1c:33:d8:84:37:67:
                    14:dd:78:ae:c7:3d:05:c6:b6:5f:15:35:b3:ae:cf:
                    52:21:c7:77:84:d3:cf:0b:4c:31:05:df:61:ab:c3:
                    a5:da:91
                Exponent: 65537 (0x10001)
        X509v3 extensions:
            X509v3 Key Usage: critical
                Digital Signature, Key Encipherment
            X509v3 Extended Key Usage: 
                TLS Web Server Authentication, TLS Web Client Authentication
            X509v3 Basic Constraints: critical
                CA:FALSE
            X509v3 Subject Key Identifier: 
                E8:C4:BC:2B:DE:6B:2D:05:28:66:60:82:D5:7A:36:FB:92:EE:01:C8
            X509v3 Authority Key Identifier: 
                keyid:92:C6:88:3D:DF:3F:EA:14:B1:44:6A:16:44:50:FB:85:91:9A:50:29
                DirName:/C=AT/ST=LowerAustria/L=Hollabrunn/O=Suljevic.htl-hl.ac.at/OU=IT/CN=Benjamin Suljevic/emailAddress=no
                serial:10:00
    Signature Algorithm: sha256WithRSAEncryption
    Signature Value:
        3d:2f:c5:2e:83:40:1a:04:05:fc:b1:da:5e:e3:22:96:b5:7d:
        ce:59:47:b2:00:c4:86:1c:10:5b:60:80:df:41:84:ce:e5:f8:
        fb:27:04:23:50:d0:64:e8:2b:a4:08:77:d5:cb:1d:c2:62:b5:
        d3:bd:2c:bf:a2:d9:a5:27:30:34:3d:4e:2b:c8:c5:90:30:7e:
        4d:71:38:b8:15:15:05:23:2a:ed:59:c6:bf:b6:2d:ed:12:3b:
        65:5c:f8:bb:34:1c:e9:ca:dc:a0:19:40:1a:f3:d5:67:61:b9:
        a7:0b:2f:31:33:36:7c:58:25:3a:fb:45:68:1c:79:1a:ab:69:
        c9:df:ee:28:ef:b2:04:cc:df:bc:2c:a9:9e:62:8e:57:a8:a1:
        8a:a9:7a:a6:e7:3e:d9:c8:ca:16:e6:40:9f:78:92:28:6c:70:
        fe:c0:f3:c0:f3:9b:42:e3:a3:53:76:5a:be:64:bb:09:7c:45:
        ec:71:ab:58:6c:ba:d1:e7:b2:27:5a:76:01:cd:f0:c0:80:f3:
        14:e0:b7:ee:de:22:63:f1:3d:f5:a5:61:50:44:42:bc:b8:22:
        82:94:3e:21:60:85:ae:70:28:89:55:10:97:6d:37:88:2e:7b:
        66:84:7b:96:97:0c:11:12:97:76:9c:e3:9d:47:fe:80:a8:60:
        aa:ee:a7:4b:94:98:f3:f7:a9:39:57:ee:e0:2c:04:ec:05:29:
        5b:48:53:df:97:35:54:06:ab:bc:f2:9d:12:93:79:4c:95:81:
        c4:33:6c:85:04:d8:d8:bf:38:c3:cb:01:b8:af:c2:b0:d9:05:
        c7:2b:eb:b6:31:84:db:2e:3d:2e:86:9c:99:4f:97:07:60:44:
        96:78:a1:45:3e:f5:fd:a2:23:cc:ec:87:01:79:78:f0:6e:47:
        f0:2d:c7:04:dc:a6:f0:05:b0:fc:2d:06:87:0d:f6:c3:78:99:
        59:f6:1a:7c:88:c7:9a:2b:8c:e5:cb:72:43:ad:e0:c0:78:f7:
        ed:b8:84:fe:9a:c8:3a:2b:1c:b0:16:27:4b:ed:e1:13:98:8e:
        95:1b:c4:50:7e:32:06:29:9d:64:1a:2a:f1:4e:40:2c:9e:07:
        09:97:bf:5a:ee:23:ea:b8:56:e3:e4:0c:9b:f0:74:c6:3f:f6:
        e0:22:8d:18:5b:4a:de:fc:8d:03:01:25:f7:37:8e:ac:a7:9d:
        fa:38:e3:66:2f:94:7e:69:fd:91:95:22:cc:71:08:11:48:1c:
        c7:19:d2:bd:55:f2:96:ad:be:89:59:6d:4e:80:22:c7:1d:6d:
        c5:6e:e3:e6:cf:5e:c6:a0:d7:ef:b5:5e:e1:07:1a:68:10:a2:
        3f:0b:db:9d:97:a4:82:dd
-----BEGIN CERTIFICATE-----
MIIGljCCBH6gAwIBAgICEAIwDQYJKoZIhvcNAQELBQAwgYExCzAJBgNVBAYTAkFU
MRUwEwYDVQQIDAxMb3dlckF1c3RyaWExEzARBgNVBAcMCkhvbGxhYnJ1bm4xIDAe
BgNVBAoMF1N1bGpldmljLnRlc3QuaHRsLWhsLmF0MQ0wCwYDVQQLDARUZXN0MRUw
EwYDVQQDDAxUZXN0IFN1bGpldmMwHhcNMjQxMTEzMDgxMjE1WhcNMzMwMTMwMDgx
MjE1WjBwMQswCQYDVQQGEwJBVTEVMBMGA1UECAwMTG93ZXJBdXN0cmlhMRMwEQYD
VQQHDApIb2xsYWJydW5uMREwDwYDVQQKDAhTdWxqZXZpYzELMAkGA1UECwwCSVQx
FTATBgNVBAMMDDE3Mi4xNy4xMjguMTCCAiIwDQYJKoZIhvcNAQEBBQADggIPADCC
AgoCggIBAI/o1AgQ2KF1s1cznwbHmM019iFGM/YRh0bLx7uQhV8KFcQthbuIgLEK
wLp13AhwcJCrQxMUuQCOFISbgJ12Tz0FNnbx1OUdJ9Q6lh9/yT7zxbTbZFAr/JRs
P/nlYyfJPHr4SuOmnvhou7Ds8dUe1vJ6diHd3xTGV6l7SoLQ3epfH3GfA2kUTZj9
qoQB8V9L/IGgANjEwbKZm4aUHxduxWYk2+SFLytrwAHVJJtGCVr0LXeuuUhj5VVq
6K1gfXkdnAFBr+mVUMl6T4d4AhXyOtL2QWH0/m7Q+6gZ4foj7K7zeS1ueFXGW6bF
M/nXwCvuDdq5Zzd/fyd4KuQ8cKL9Bhw101IrErlGWitMOz7lhcdXbT26sfNNFN5A
Q8rY1kxI1lC8QO5+4ER4rkSw/gH0TDbqg52Ig3YD2S5f8laQXZWHZgW/cwESJXx5
PwGxEgeJ+hrJHzH1BI1pjIInRcxjSxGHfwm0XLJicSVlqWj2HSPMH45tRJFlqf+Z
O16XVELs8kBQIL7I36SFsbO9aPkOzuByTsyPpWSOzuPanRO2pNPn0NC0WTQwWvgq
VaYZDPpTVGY4lE/QLeJveEmfmXmHU4/0GdfRRY9x1sp5IZa5PdPWJObX3Rkupy0s
HDPYhDdnFN14rsc9Bca2XxU1s67PUiHHd4TTzwtMMQXfYavDpdqRAgMBAAGjggEm
MIIBIjAOBgNVHQ8BAf8EBAMCBaAwHQYDVR0lBBYwFAYIKwYBBQUHAwEGCCsGAQUF
BwMCMAwGA1UdEwEB/wQCMAAwHQYDVR0OBBYEFOjEvCveay0FKGZggtV6NvuS7gHI
MIHDBgNVHSMEgbswgbiAFJLGiD3fP+oUsURqFkRQ+4WRmlApoYGbpIGYMIGVMQsw
CQYDVQQGEwJBVDEVMBMGA1UECAwMTG93ZXJBdXN0cmlhMRMwEQYDVQQHDApIb2xs
YWJydW5uMR4wHAYDVQQKDBVTdWxqZXZpYy5odGwtaGwuYWMuYXQxCzAJBgNVBAsM
AklUMRowGAYDVQQDDBFCZW5qYW1pbiBTdWxqZXZpYzERMA8GCSqGSIb3DQEJARYC
bm+CAhAAMA0GCSqGSIb3DQEBCwUAA4ICAQA9L8Uug0AaBAX8sdpe4yKWtX3OWUey
AMSGHBBbYIDfQYTO5fj7JwQjUNBk6CukCHfVyx3CYrXTvSy/otmlJzA0PU4ryMWQ
MH5NcTi4FRUFIyrtWca/ti3tEjtlXPi7NBzpytygGUAa89VnYbmnCy8xMzZ8WCU6
+0VoHHkaq2nJ3+4o77IEzN+8LKmeYo5XqKGKqXqm5z7ZyMoW5kCfeJIobHD+wPPA
85tC46NTdlq+ZLsJfEXscatYbLrR57InWnYBzfDAgPMU4Lfu3iJj8T31pWFQREK8
uCKClD4hYIWucCiJVRCXbTeILntmhHuWlwwREpd2nOOdR/6AqGCq7qdLlJjz96k5
V+7gLATsBSlbSFPflzVUBqu88p0Sk3lMlYHEM2yFBNjYvzjDywG4r8Kw2QXHK+u2
MYTbLj0uhpyZT5cHYESWeKFFPvX9oiPM7IcBeXjwbkfwLccE3KbwBbD8LQaHDfbD
eJlZ9hp8iMeaK4zly3JDreDAePftuIT+msg6KxywFidL7eETmI6VG8RQfjIGKZ1k
GirxTkAsngcJl79a7iPquFbj5Ayb8HTGP/bgIo0YW0re/I0DASX3N46sp536OONm
L5R+af2RlSLMcQgRSBzHGdK9VfKWrb6JWW1OgCLHHW3FbuPmz17GoNfvtV7hBxpo
EKI/C9udl6SC3Q==
-----END CERTIFICATE-----
