Certificate:
    Data:
        Version: 3 (0x2)
        Serial Number: 4100 (0x1004)
        Signature Algorithm: sha256WithRSAEncryption
        Issuer: C=AT, ST=LowerAustria, L=Hollabrunn, O=Suljevic.test.htl-hl.at, OU=Test, CN=Test Suljevc
        Validity
            Not Before: Nov 20 07:30:37 2024 GMT
            Not After : Feb  6 07:30:37 2033 GMT
        Subject: C=AT, L=Hollabrunn, O=Suljevic AG, CN=abc.htl
        Subject Public Key Info:
            Public Key Algorithm: rsaEncryption
                Public-Key: (4096 bit)
                Modulus:
                    00:ef:bf:5b:1c:27:35:96:88:0c:a9:52:eb:a1:43:
                    d5:03:ec:3e:92:d0:17:b2:f7:c0:88:bb:8e:d4:53:
                    71:6c:ac:25:f9:7d:52:e1:48:10:a6:c8:21:09:45:
                    eb:71:df:c3:0b:b7:42:3e:7d:1e:e1:f9:5a:b1:47:
                    52:85:4c:32:c0:8e:ec:4e:b2:39:9a:01:a2:db:21:
                    fd:12:59:e6:23:f2:a5:d3:25:66:f9:db:da:3a:88:
                    50:60:74:73:37:c7:e8:dd:db:d6:11:d0:e8:fb:6b:
                    e1:0e:1b:49:8f:03:4b:57:a5:5a:2f:0d:83:73:65:
                    16:60:74:f9:49:a5:b0:2d:c5:88:cb:9f:0f:e6:1e:
                    80:07:be:58:48:66:5a:76:94:42:bc:68:27:55:d0:
                    23:98:b6:5d:0d:68:b8:7c:bf:32:b6:a6:d2:9d:3b:
                    f6:15:c2:69:4c:00:97:0d:eb:40:c3:40:b1:11:00:
                    08:9e:8c:50:e6:9b:ab:b1:0a:c7:f9:ab:85:5d:9c:
                    b4:a0:63:79:21:b9:79:6b:c7:6e:d4:30:bc:3d:b4:
                    29:40:23:20:7a:22:30:48:e5:1d:8c:e6:45:ed:0d:
                    9b:ef:6c:47:66:92:18:ea:0f:15:e5:6d:bc:f3:7d:
                    bf:98:b4:ca:b6:7e:55:02:f7:7e:8f:c5:cd:41:c0:
                    00:7c:8a:e4:a1:9e:68:1e:f7:29:9f:cc:c3:9d:82:
                    97:b8:34:a9:5e:e8:df:e4:14:96:fa:72:23:94:1e:
                    dc:9b:eb:b4:be:4f:fd:e2:9b:01:81:fb:71:48:32:
                    75:d3:d6:72:3c:34:ae:3c:b1:94:67:36:bf:aa:40:
                    bd:11:b7:f9:19:cd:c0:69:9d:24:74:5c:2d:46:db:
                    ae:67:e1:1f:44:52:3b:e9:96:9c:e7:6e:f2:f9:70:
                    38:e8:8d:d8:f2:e4:b6:f1:e0:77:25:b2:4b:a0:c8:
                    f0:62:3a:bf:c2:40:8a:c8:ea:91:61:cb:cb:2d:e9:
                    4e:61:7e:64:bc:29:cc:93:36:b0:1b:40:d2:a5:bb:
                    33:a0:9b:f2:e5:83:2b:31:b6:18:5c:c5:eb:b1:7f:
                    a6:4c:cf:e7:57:0b:a6:a2:3f:18:c8:59:33:1a:59:
                    55:07:b1:12:03:10:9c:88:28:aa:4b:70:9d:7e:ca:
                    e9:45:77:e7:31:54:6c:03:99:e7:e0:2b:2e:25:9a:
                    29:c1:3a:21:74:28:1d:ba:07:0d:6e:17:69:c3:c3:
                    3c:2a:bb:d3:68:5c:d7:3b:d9:2a:01:1f:85:c4:7d:
                    6d:ed:76:72:01:95:67:a2:bb:1f:99:18:56:dd:e8:
                    c1:1d:4a:d9:30:8c:36:00:1b:ec:0e:2e:11:3e:33:
                    13:95:71
                Exponent: 65537 (0x10001)
        X509v3 extensions:
            X509v3 Basic Constraints: critical
                CA:TRUE
            X509v3 Subject Key Identifier: 
                6A:E4:73:C7:D9:0A:9F:B8:EE:44:F9:D3:85:35:6B:1A:A6:51:3A:C2
            X509v3 Authority Key Identifier: 
                keyid:92:C6:88:3D:DF:3F:EA:14:B1:44:6A:16:44:50:FB:85:91:9A:50:29
                DirName:/C=AT/ST=LowerAustria/L=Hollabrunn/O=Suljevic.htl-hl.ac.at/OU=IT/CN=Benjamin Suljevic/emailAddress=no
                serial:10:00
            X509v3 Key Usage: critical
                Digital Signature, Certificate Sign, CRL Sign
            X509v3 Subject Alternative Name: 
                DNS:localhost, DNS:127.0.0.1, DNS:10.23.110.70
    Signature Algorithm: sha256WithRSAEncryption
    Signature Value:
        7b:21:13:1f:57:a5:1e:51:5c:2c:c0:0b:c0:e7:38:e6:6b:90:
        44:60:30:0f:25:a5:02:21:b0:b5:c2:be:fe:4a:53:24:45:44:
        41:53:a7:68:2b:97:2e:70:0d:0a:1e:b5:2c:77:b6:0b:da:aa:
        a3:1f:78:a5:39:96:99:e4:41:bc:cc:69:24:1c:1b:30:42:43:
        7e:3c:38:8f:b8:06:4e:fa:65:8e:a7:f4:b8:6b:a7:90:ed:10:
        ff:05:71:d6:4f:76:fe:15:08:73:89:c8:cf:02:2e:75:0e:21:
        07:1e:4e:46:92:97:85:0c:52:7a:59:35:d2:bb:be:ba:38:3d:
        aa:a7:30:7c:7f:78:5f:c7:43:fa:d3:f5:1e:a1:bc:0e:e1:49:
        5c:7a:19:10:b5:6d:51:d9:a1:d6:12:82:5e:d5:b2:7a:88:5c:
        ca:e8:ae:5a:f3:49:20:9c:7b:50:77:76:51:59:88:09:17:45:
        6a:73:e8:84:f1:d3:3d:b9:07:8f:5b:8d:4b:7c:10:f0:60:c8:
        19:57:cd:ba:8f:a6:8d:b6:f1:a9:95:99:97:0a:3f:0a:f4:ac:
        5e:6d:72:54:08:93:20:c1:8e:e6:3a:ef:c7:8e:32:c8:c1:f7:
        0e:c4:b3:b4:2b:df:4e:65:24:54:a7:c7:91:10:32:00:82:7c:
        fb:47:0c:52:8a:a8:a0:8d:5d:c9:c7:0f:19:53:6f:33:15:35:
        eb:2e:25:a9:b5:ba:2e:f7:db:75:ea:db:0c:2b:2a:68:56:75:
        17:92:1d:16:0c:9c:3a:ce:8a:b3:8c:5c:b5:d0:63:4a:e7:f3:
        85:1f:cc:c7:16:ce:92:e6:14:2b:0c:59:c2:40:1d:03:db:f7:
        0a:f2:af:43:59:ac:ad:c7:75:da:d6:3f:86:73:08:b7:73:20:
        aa:9a:90:b6:08:50:8f:9b:8f:c0:7a:ff:60:55:2d:06:7e:02:
        21:bf:65:4f:d1:b8:dd:37:1d:2e:a8:c9:34:35:ad:5f:97:d9:
        c9:6f:3d:d4:6e:16:9c:2d:8e:f4:54:a2:f7:dd:8d:65:78:2f:
        4e:15:c8:20:25:8e:8e:c1:a2:a5:6b:58:80:47:15:c7:cb:42:
        af:75:06:28:e2:75:43:0f:24:d4:c4:ef:64:d5:b3:85:d0:9d:
        1e:aa:af:dd:a1:e0:55:9c:ef:22:97:bf:86:fe:05:1b:5e:07:
        c3:b9:21:83:82:56:f5:73:0d:58:29:41:10:2f:e1:e5:7a:80:
        74:99:bd:a6:18:fc:39:82:4b:f0:8e:84:b5:ee:e8:91:39:f1:
        49:1b:ab:bc:28:62:8b:49:6b:fa:ba:05:fb:71:f6:42:be:25:
        a1:40:4d:ca:88:5b:75:78
-----BEGIN CERTIFICATE-----
MIIGgzCCBGugAwIBAgICEAQwDQYJKoZIhvcNAQELBQAwgYExCzAJBgNVBAYTAkFU
MRUwEwYDVQQIDAxMb3dlckF1c3RyaWExEzARBgNVBAcMCkhvbGxhYnJ1bm4xIDAe
BgNVBAoMF1N1bGpldmljLnRlc3QuaHRsLWhsLmF0MQ0wCwYDVQQLDARUZXN0MRUw
EwYDVQQDDAxUZXN0IFN1bGpldmMwHhcNMjQxMTIwMDczMDM3WhcNMzMwMjA2MDcz
MDM3WjBKMQswCQYDVQQGEwJBVDETMBEGA1UEBwwKSG9sbGFicnVubjEUMBIGA1UE
CgwLU3VsamV2aWMgQUcxEDAOBgNVBAMMB2FiYy5odGwwggIiMA0GCSqGSIb3DQEB
AQUAA4ICDwAwggIKAoICAQDvv1scJzWWiAypUuuhQ9UD7D6S0Bey98CIu47UU3Fs
rCX5fVLhSBCmyCEJRetx38MLt0I+fR7h+VqxR1KFTDLAjuxOsjmaAaLbIf0SWeYj
8qXTJWb529o6iFBgdHM3x+jd29YR0Oj7a+EOG0mPA0tXpVovDYNzZRZgdPlJpbAt
xYjLnw/mHoAHvlhIZlp2lEK8aCdV0COYtl0NaLh8vzK2ptKdO/YVwmlMAJcN60DD
QLERAAiejFDmm6uxCsf5q4VdnLSgY3khuXlrx27UMLw9tClAIyB6IjBI5R2M5kXt
DZvvbEdmkhjqDxXlbbzzfb+YtMq2flUC936Pxc1BwAB8iuShnmge9ymfzMOdgpe4
NKle6N/kFJb6ciOUHtyb67S+T/3imwGB+3FIMnXT1nI8NK48sZRnNr+qQL0Rt/kZ
zcBpnSR0XC1G265n4R9EUjvplpznbvL5cDjojdjy5Lbx4HclskugyPBiOr/CQIrI
6pFhy8st6U5hfmS8KcyTNrAbQNKluzOgm/Llgysxthhcxeuxf6ZMz+dXC6aiPxjI
WTMaWVUHsRIDEJyIKKpLcJ1+yulFd+cxVGwDmefgKy4lminBOiF0KB26Bw1uF2nD
wzwqu9NoXNc72SoBH4XEfW3tdnIBlWeiux+ZGFbd6MEdStkwjDYAG+wOLhE+MxOV
cQIDAQABo4IBOTCCATUwDwYDVR0TAQH/BAUwAwEB/zAdBgNVHQ4EFgQUauRzx9kK
n7juRPnThTVrGqZROsIwgcMGA1UdIwSBuzCBuIAUksaIPd8/6hSxRGoWRFD7hZGa
UCmhgZukgZgwgZUxCzAJBgNVBAYTAkFUMRUwEwYDVQQIDAxMb3dlckF1c3RyaWEx
EzARBgNVBAcMCkhvbGxhYnJ1bm4xHjAcBgNVBAoMFVN1bGpldmljLmh0bC1obC5h
Yy5hdDELMAkGA1UECwwCSVQxGjAYBgNVBAMMEUJlbmphbWluIFN1bGpldmljMREw
DwYJKoZIhvcNAQkBFgJub4ICEAAwDgYDVR0PAQH/BAQDAgGGMC0GA1UdEQQmMCSC
CWxvY2FsaG9zdIIJMTI3LjAuMC4xggwxMC4yMy4xMTAuNzAwDQYJKoZIhvcNAQEL
BQADggIBAHshEx9XpR5RXCzAC8DnOOZrkERgMA8lpQIhsLXCvv5KUyRFREFTp2gr
ly5wDQoetSx3tgvaqqMfeKU5lpnkQbzMaSQcGzBCQ348OI+4Bk76ZY6n9Lhrp5Dt
EP8FcdZPdv4VCHOJyM8CLnUOIQceTkaSl4UMUnpZNdK7vro4PaqnMHx/eF/HQ/rT
9R6hvA7hSVx6GRC1bVHZodYSgl7VsnqIXMrorlrzSSCce1B3dlFZiAkXRWpz6ITx
0z25B49bjUt8EPBgyBlXzbqPpo228amVmZcKPwr0rF5tclQIkyDBjuY678eOMsjB
9w7Es7Qr305lJFSnx5EQMgCCfPtHDFKKqKCNXcnHDxlTbzMVNesuJam1ui7323Xq
2wwrKmhWdReSHRYMnDrOirOMXLXQY0rn84UfzMcWzpLmFCsMWcJAHQPb9wryr0NZ
rK3HddrWP4ZzCLdzIKqakLYIUI+bj8B6/2BVLQZ+AiG/ZU/RuN03HS6oyTQ1rV+X
2clvPdRuFpwtjvRUovfdjWV4L04VyCAljo7BoqVrWIBHFcfLQq91BijidUMPJNTE
72TVs4XQnR6qr92h4FWc7yKXv4b+BRteB8O5IYOCVvVzDVgpQRAv4eV6gHSZvaYY
/DmCS/COhLXu6JE58Ukbq7woYotJa/q6Bftx9kK+JaFATcqIW3V4
-----END CERTIFICATE-----
