Certificate:
    Data:
        Version: 3 (0x2)
        Serial Number: 4101 (0x1005)
        Signature Algorithm: sha256WithRSAEncryption
        Issuer: C=AT, ST=LowerAustria, L=Hollabrunn, O=Suljevic.test.htl-hl.at, OU=Test, CN=Test Suljevc
        Validity
            Not Before: Nov 20 07:46:07 2024 GMT
            Not After : Feb  6 07:46:07 2033 GMT
        Subject: C=AT, ST=LowerAustria, L=Hollabrunn, O=Suljevic AG, CN=test123456
        Subject Public Key Info:
            Public Key Algorithm: rsaEncryption
                Public-Key: (4096 bit)
                Modulus:
                    00:ef:bf:5b:1c:27:35:96:88:0c:a9:52:eb:a1:43:
                    d5:03:ec:3e:92:d0:17:b2:f7:c0:88:bb:8e:d4:53:
                    71:6c:ac:25:f9:7d:52:e1:48:10:a6:c8:21:09:45:
                    eb:71:df:c3:0b:b7:42:3e:7d:1e:e1:f9:5a:b1:47:
                    52:85:4c:32:c0:8e:ec:4e:b2:39:9a:01:a2:db:21:
                    fd:12:59:e6:23:f2:a5:d3:25:66:f9:db:da:3a:88:
                    50:60:74:73:37:c7:e8:dd:db:d6:11:d0:e8:fb:6b:
                    e1:0e:1b:49:8f:03:4b:57:a5:5a:2f:0d:83:73:65:
                    16:60:74:f9:49:a5:b0:2d:c5:88:cb:9f:0f:e6:1e:
                    80:07:be:58:48:66:5a:76:94:42:bc:68:27:55:d0:
                    23:98:b6:5d:0d:68:b8:7c:bf:32:b6:a6:d2:9d:3b:
                    f6:15:c2:69:4c:00:97:0d:eb:40:c3:40:b1:11:00:
                    08:9e:8c:50:e6:9b:ab:b1:0a:c7:f9:ab:85:5d:9c:
                    b4:a0:63:79:21:b9:79:6b:c7:6e:d4:30:bc:3d:b4:
                    29:40:23:20:7a:22:30:48:e5:1d:8c:e6:45:ed:0d:
                    9b:ef:6c:47:66:92:18:ea:0f:15:e5:6d:bc:f3:7d:
                    bf:98:b4:ca:b6:7e:55:02:f7:7e:8f:c5:cd:41:c0:
                    00:7c:8a:e4:a1:9e:68:1e:f7:29:9f:cc:c3:9d:82:
                    97:b8:34:a9:5e:e8:df:e4:14:96:fa:72:23:94:1e:
                    dc:9b:eb:b4:be:4f:fd:e2:9b:01:81:fb:71:48:32:
                    75:d3:d6:72:3c:34:ae:3c:b1:94:67:36:bf:aa:40:
                    bd:11:b7:f9:19:cd:c0:69:9d:24:74:5c:2d:46:db:
                    ae:67:e1:1f:44:52:3b:e9:96:9c:e7:6e:f2:f9:70:
                    38:e8:8d:d8:f2:e4:b6:f1:e0:77:25:b2:4b:a0:c8:
                    f0:62:3a:bf:c2:40:8a:c8:ea:91:61:cb:cb:2d:e9:
                    4e:61:7e:64:bc:29:cc:93:36:b0:1b:40:d2:a5:bb:
                    33:a0:9b:f2:e5:83:2b:31:b6:18:5c:c5:eb:b1:7f:
                    a6:4c:cf:e7:57:0b:a6:a2:3f:18:c8:59:33:1a:59:
                    55:07:b1:12:03:10:9c:88:28:aa:4b:70:9d:7e:ca:
                    e9:45:77:e7:31:54:6c:03:99:e7:e0:2b:2e:25:9a:
                    29:c1:3a:21:74:28:1d:ba:07:0d:6e:17:69:c3:c3:
                    3c:2a:bb:d3:68:5c:d7:3b:d9:2a:01:1f:85:c4:7d:
                    6d:ed:76:72:01:95:67:a2:bb:1f:99:18:56:dd:e8:
                    c1:1d:4a:d9:30:8c:36:00:1b:ec:0e:2e:11:3e:33:
                    13:95:71
                Exponent: 65537 (0x10001)
        X509v3 extensions:
            X509v3 Basic Constraints: critical
                CA:TRUE
            X509v3 Subject Key Identifier: 
                6A:E4:73:C7:D9:0A:9F:B8:EE:44:F9:D3:85:35:6B:1A:A6:51:3A:C2
            X509v3 Authority Key Identifier: 
                keyid:92:C6:88:3D:DF:3F:EA:14:B1:44:6A:16:44:50:FB:85:91:9A:50:29
                DirName:/C=AT/ST=LowerAustria/L=Hollabrunn/O=Suljevic.htl-hl.ac.at/OU=IT/CN=Benjamin Suljevic/emailAddress=no
                serial:10:00
            X509v3 Key Usage: critical
                Digital Signature, Certificate Sign, CRL Sign
            X509v3 Subject Alternative Name: 
                DNS:localhost, DNS:127.0.0.1, DNS:172.17.128.1
    Signature Algorithm: sha256WithRSAEncryption
    Signature Value:
        39:5b:c7:7c:c4:cd:1b:46:af:94:83:ed:50:fa:9e:8e:33:35:
        73:fd:88:1c:95:34:27:57:ef:64:c1:b2:41:a1:05:a8:a3:1d:
        28:6a:37:97:3f:27:bf:ad:06:b4:27:cf:b0:9e:62:15:89:70:
        c4:69:aa:44:02:63:d2:f2:d4:67:b8:38:37:93:31:89:73:0a:
        5f:bf:14:8c:56:4d:2d:5f:6b:59:1f:94:c6:e0:76:0b:ff:d7:
        81:2b:03:80:f8:9b:ec:be:50:12:92:49:23:05:2b:a6:b3:dd:
        c8:27:ae:2b:c3:77:d2:fd:ea:12:25:7e:fd:96:52:fa:2e:02:
        5e:b9:db:f1:82:e0:6f:a6:02:c7:15:54:bc:bc:18:cf:6f:6c:
        cb:17:cd:79:8c:30:0b:59:f0:49:49:bc:af:1a:a7:17:d1:bb:
        c9:80:9f:0d:22:16:cd:3c:1b:39:95:a0:9b:73:7a:82:ce:c4:
        b0:c9:a0:e2:7f:14:87:03:9f:25:8f:9b:2c:6f:b7:b5:0f:5e:
        fc:25:03:03:a4:fc:91:5f:b3:f9:97:e8:1c:18:37:0c:ce:b6:
        49:88:0f:99:68:44:11:0d:1d:28:cf:60:1f:e5:c9:78:d7:11:
        aa:12:0a:f9:0f:fa:45:17:91:07:c2:90:d9:25:a0:db:5d:bd:
        10:b1:be:b5:ee:f6:d4:67:ee:11:77:95:0e:03:ba:12:be:0d:
        f3:a6:38:8e:07:ee:b6:7b:8d:03:6b:e1:9d:7e:04:53:18:09:
        59:ae:d0:ad:02:d9:d6:d6:80:28:1a:25:62:b5:1d:b8:20:a6:
        09:78:2e:46:9c:15:08:d3:2a:5a:c7:9e:6e:23:0d:00:c2:d4:
        f3:f7:10:78:8a:57:76:e3:3a:d0:a7:82:25:90:f4:dc:7e:11:
        8d:8f:7f:ae:cd:02:d3:d2:ea:9e:5d:a2:cc:5e:78:96:66:1a:
        d6:16:92:4e:1d:9b:b9:12:33:8e:c4:c0:ef:9d:32:7e:a1:4f:
        cc:e1:a5:7d:39:2f:3e:50:36:b9:0d:8b:c2:33:85:ed:d5:07:
        e3:fe:7b:0c:7b:7c:d9:66:74:cc:75:f6:32:0d:35:bb:a9:21:
        88:b5:9a:20:56:ba:88:78:43:19:7d:f9:7a:9e:ce:94:13:af:
        c4:9b:c7:22:3f:da:86:e2:26:5f:fa:58:61:0e:c1:77:cd:9b:
        72:38:7e:15:92:ac:15:59:3d:60:ed:c2:44:eb:ef:f2:76:18:
        54:59:65:ab:96:3e:cc:64:00:32:2d:bc:ce:86:c6:65:82:cc:
        43:51:4e:bb:51:7c:37:c9:c3:9a:4c:a3:3f:c9:42:9a:13:98:
        8a:43:7a:52:b2:08:ea:ce
-----BEGIN CERTIFICATE-----
MIIGnTCCBIWgAwIBAgICEAUwDQYJKoZIhvcNAQELBQAwgYExCzAJBgNVBAYTAkFU
MRUwEwYDVQQIDAxMb3dlckF1c3RyaWExEzARBgNVBAcMCkhvbGxhYnJ1bm4xIDAe
BgNVBAoMF1N1bGpldmljLnRlc3QuaHRsLWhsLmF0MQ0wCwYDVQQLDARUZXN0MRUw
EwYDVQQDDAxUZXN0IFN1bGpldmMwHhcNMjQxMTIwMDc0NjA3WhcNMzMwMjA2MDc0
NjA3WjBkMQswCQYDVQQGEwJBVDEVMBMGA1UECAwMTG93ZXJBdXN0cmlhMRMwEQYD
VQQHDApIb2xsYWJydW5uMRQwEgYDVQQKDAtTdWxqZXZpYyBBRzETMBEGA1UEAwwK
dGVzdDEyMzQ1NjCCAiIwDQYJKoZIhvcNAQEBBQADggIPADCCAgoCggIBAO+/Wxwn
NZaIDKlS66FD1QPsPpLQF7L3wIi7jtRTcWysJfl9UuFIEKbIIQlF63Hfwwu3Qj59
HuH5WrFHUoVMMsCO7E6yOZoBotsh/RJZ5iPypdMlZvnb2jqIUGB0czfH6N3b1hHQ
6Ptr4Q4bSY8DS1elWi8Ng3NlFmB0+UmlsC3FiMufD+YegAe+WEhmWnaUQrxoJ1XQ
I5i2XQ1ouHy/Mram0p079hXCaUwAlw3rQMNAsREACJ6MUOabq7EKx/mrhV2ctKBj
eSG5eWvHbtQwvD20KUAjIHoiMEjlHYzmRe0Nm+9sR2aSGOoPFeVtvPN9v5i0yrZ+
VQL3fo/FzUHAAHyK5KGeaB73KZ/Mw52Cl7g0qV7o3+QUlvpyI5Qe3JvrtL5P/eKb
AYH7cUgyddPWcjw0rjyxlGc2v6pAvRG3+RnNwGmdJHRcLUbbrmfhH0RSO+mWnOdu
8vlwOOiN2PLktvHgdyWyS6DI8GI6v8JAisjqkWHLyy3pTmF+ZLwpzJM2sBtA0qW7
M6Cb8uWDKzG2GFzF67F/pkzP51cLpqI/GMhZMxpZVQexEgMQnIgoqktwnX7K6UV3
5zFUbAOZ5+ArLiWaKcE6IXQoHboHDW4XacPDPCq702hc1zvZKgEfhcR9be12cgGV
Z6K7H5kYVt3owR1K2TCMNgAb7A4uET4zE5VxAgMBAAGjggE5MIIBNTAPBgNVHRMB
Af8EBTADAQH/MB0GA1UdDgQWBBRq5HPH2QqfuO5E+dOFNWsaplE6wjCBwwYDVR0j
BIG7MIG4gBSSxog93z/qFLFEahZEUPuFkZpQKaGBm6SBmDCBlTELMAkGA1UEBhMC
QVQxFTATBgNVBAgMDExvd2VyQXVzdHJpYTETMBEGA1UEBwwKSG9sbGFicnVubjEe
MBwGA1UECgwVU3VsamV2aWMuaHRsLWhsLmFjLmF0MQswCQYDVQQLDAJJVDEaMBgG
A1UEAwwRQmVuamFtaW4gU3VsamV2aWMxETAPBgkqhkiG9w0BCQEWAm5vggIQADAO
BgNVHQ8BAf8EBAMCAYYwLQYDVR0RBCYwJIIJbG9jYWxob3N0ggkxMjcuMC4wLjGC
DDE3Mi4xNy4xMjguMTANBgkqhkiG9w0BAQsFAAOCAgEAOVvHfMTNG0avlIPtUPqe
jjM1c/2IHJU0J1fvZMGyQaEFqKMdKGo3lz8nv60GtCfPsJ5iFYlwxGmqRAJj0vLU
Z7g4N5MxiXMKX78UjFZNLV9rWR+UxuB2C//XgSsDgPib7L5QEpJJIwUrprPdyCeu
K8N30v3qEiV+/ZZS+i4CXrnb8YLgb6YCxxVUvLwYz29syxfNeYwwC1nwSUm8rxqn
F9G7yYCfDSIWzTwbOZWgm3N6gs7EsMmg4n8UhwOfJY+bLG+3tQ9e/CUDA6T8kV+z
+ZfoHBg3DM62SYgPmWhEEQ0dKM9gH+XJeNcRqhIK+Q/6RReRB8KQ2SWg2129ELG+
te721GfuEXeVDgO6Er4N86Y4jgfutnuNA2vhnX4EUxgJWa7QrQLZ1taAKBolYrUd
uCCmCXguRpwVCNMqWseebiMNAMLU8/cQeIpXduM60KeCJZD03H4RjY9/rs0C09Lq
nl2izF54lmYa1haSTh2buRIzjsTA750yfqFPzOGlfTkvPlA2uQ2LwjOF7dUH4/57
DHt82WZ0zHX2Mg01u6khiLWaIFa6iHhDGX35ep7OlBOvxJvHIj/ahuImX/pYYQ7B
d82bcjh+FZKsFVk9YO3CROvv8nYYVFllq5Y+zGQAMi28zobGZYLMQ1FOu1F8N8nD
mkyjP8lCmhOYikN6UrII6s4=
-----END CERTIFICATE-----
